target datalayout = "e-m:e-p270:32:32-p271:32:32-p272:64:64-i64:64-i128:128-f80:128-n8:16:32:64-S128"
target triple = "x86_64-pc-linux-gnu"

%struct.template_dir_cb_data = type { ptr, i32 }

@.str.143 = private unnamed_addr constant [17 x i8] c"init.templatedir\00", align 1

; Function Attrs: nounwind uwtable
define internal i32 @template_dir_cb(ptr noundef %0, ptr noundef %1, ptr noundef %2, ptr noundef %3) #0 {
  %5 = alloca i32, align 4
  %6 = alloca ptr, align 8
  %7 = alloca ptr, align 8
  %8 = alloca ptr, align 8
  %9 = alloca ptr, align 8
  %10 = alloca ptr, align 8
  %11 = alloca i32, align 4
  %12 = alloca ptr, align 8
  store ptr %0, ptr %6, align 8, !tbaa !4
  store ptr %1, ptr %7, align 8, !tbaa !4
  store ptr %2, ptr %8, align 8, !tbaa !53
  store ptr %3, ptr %9, align 8, !tbaa !55
  call void @llvm.lifetime.start.p0(i64 8, ptr %10) #13
  %13 = load ptr, ptr %9, align 8, !tbaa !55
  store ptr %13, ptr %10, align 8, !tbaa !111
  %14 = load ptr, ptr %6, align 8, !tbaa !4
  %15 = call i32 @strcmp(ptr noundef %14, ptr noundef @.str.143) #14
  %16 = icmp ne i32 %15, 0
  br i1 %16, label %17, label %18

17:                                               ; preds = %4
  store i32 0, ptr %5, align 4
  store i32 1, ptr %11, align 4
  br label %51

18:                                               ; preds = %4
  %19 = load ptr, ptr %7, align 8, !tbaa !4
  %20 = icmp ne ptr %19, null
  br i1 %20, label %24, label %21

21:                                               ; preds = %18
  %22 = load ptr, ptr %10, align 8, !tbaa !111
  %23 = getelementptr inbounds nuw %struct.template_dir_cb_data, ptr %22, i32 0, i32 0
  store ptr null, ptr %23, align 8, !tbaa !110
  br label %50

24:                                               ; preds = %18
  call void @llvm.lifetime.start.p0(i64 8, ptr %12) #13
  store ptr null, ptr %12, align 8, !tbaa !4
  br label %25

25:                                               ; preds = %24
  %26 = load ptr, ptr %10, align 8, !tbaa !111
  %27 = getelementptr inbounds nuw %struct.template_dir_cb_data, ptr %26, i32 0, i32 0
  %28 = load ptr, ptr %27, align 8, !tbaa !110
  call void @free(ptr noundef %28) #13
  %29 = load ptr, ptr %10, align 8, !tbaa !111
  %30 = getelementptr inbounds nuw %struct.template_dir_cb_data, ptr %29, i32 0, i32 0
  store ptr null, ptr %30, align 8, !tbaa !110
  br label %31

31:                                               ; preds = %25
  br label %32

32:                                               ; preds = %31
  %33 = load ptr, ptr %6, align 8, !tbaa !4
  %34 = load ptr, ptr %7, align 8, !tbaa !4
  %35 = call i32 @git_config_pathname(ptr noundef %12, ptr noundef %33, ptr noundef %34)
  %36 = icmp ne i32 %35, 0
  br i1 %36, label %49, label %37

37:                                               ; preds = %32
  %38 = load ptr, ptr %12, align 8, !tbaa !4
  %39 = icmp ne ptr %38, null
  br i1 %39, label %40, label %42

40:                                               ; preds = %37
  %41 = load ptr, ptr %12, align 8, !tbaa !4
  br label %45

42:                                               ; preds = %37
  %43 = load ptr, ptr %7, align 8, !tbaa !4
  %44 = call ptr @xstrdup(ptr noundef %43)
  br label %45

45:                                               ; preds = %42, %40
  %46 = phi ptr [ %41, %40 ], [ %44, %42 ]
  %47 = load ptr, ptr %10, align 8, !tbaa !111
  %48 = getelementptr inbounds nuw %struct.template_dir_cb_data, ptr %47, i32 0, i32 0
  store ptr %46, ptr %48, align 8, !tbaa !110
  br label %49

49:                                               ; preds = %45, %32
  call void @llvm.lifetime.end.p0(i64 8, ptr %12) #13
  br label %50

50:                                               ; preds = %49, %21
  store i32 0, ptr %5, align 4
  store i32 1, ptr %11, align 4
  br label %51

51:                                               ; preds = %50, %17
  call void @llvm.lifetime.end.p0(i64 8, ptr %10) #13
  %52 = load i32, ptr %5, align 4
  ret i32 %52
}