; Function Attrs: nounwind uwtable
define internal noundef i32 @template_dir_cb(ptr noundef %0, ptr noundef %1, ptr readnone captures(none) %2, ptr noundef captures(none) %3) #0 {
  %5 = alloca ptr, align 8
  %6 = tail call i32 @strcmp(ptr noundef nonnull dereferenceable(1) %0, ptr noundef nonnull dereferenceable(17) @.str.143) #24
  %.not = icmp eq i32 %6, 0
  br i1 %.not, label %7, label %19

7:                                                ; preds = %4
  %.not11 = icmp eq ptr %1, null
  br i1 %.not11, label %8, label %9

8:                                                ; preds = %7
  store ptr null, ptr %3, align 8, !tbaa !103
  br label %19

9:                                                ; preds = %7
  call void @llvm.lifetime.start.p0(i64 8, ptr nonnull %5) #25
  store ptr null, ptr %5, align 8, !tbaa !58
  %10 = load ptr, ptr %3, align 8, !tbaa !103
  tail call void @free(ptr noundef %10) #25
  store ptr null, ptr %3, align 8, !tbaa !103
  %11 = call i32 @git_config_pathname(ptr noundef nonnull %5, ptr noundef nonnull %0, ptr noundef nonnull %1) #25
  %.not12 = icmp eq i32 %11, 0
  br i1 %.not12, label %12, label %18

12:                                               ; preds = %9
  %13 = load ptr, ptr %5, align 8, !tbaa !58
  %.not13 = icmp eq ptr %13, null
  br i1 %.not13, label %14, label %16

14:                                               ; preds = %12
  %15 = call ptr @xstrdup(ptr noundef nonnull %1) #25
  br label %16

16:                                               ; preds = %12, %14
  %17 = phi ptr [ %15, %14 ], [ %13, %12 ]
  store ptr %17, ptr %3, align 8, !tbaa !103
  br label %18

18:                                               ; preds = %16, %9
  call void @llvm.lifetime.end.p0(i64 8, ptr nonnull %5) #25
  br label %19

19:                                               ; preds = %8, %18, %4
  ret i32 0
}